target datalayout = "e-m:e-p270:32:32-p271:32:32-p272:64:64-i64:64-i128:128-f80:128-n8:16:32:64-S128"
target triple = "x86_64-pc-linux-gnu"

%struct.ComplexArray = type { ptr, ptr }
%struct.DiagonalOp = type { i32, i64, i32, i32, ptr, ptr, %struct.ComplexArray }
%struct.QuESTEnv = type { i32, i32, ptr, i32, ptr }

; Function Attrs: nounwind uwtable
define void @QuESTAssert(i32 noundef %0, i32 noundef %1, ptr noundef %2) #0 {
  %4 = alloca i32, align 4
  %5 = alloca i32, align 4
  %6 = alloca ptr, align 8
  store i32 %0, ptr %4, align 4, !tbaa !9
  store i32 %1, ptr %5, align 4, !tbaa !9
  store ptr %2, ptr %6, align 8, !tbaa !4
  %7 = load i32, ptr %4, align 4, !tbaa !9
  %8 = icmp ne i32 %7, 0
  br i1 %8, label %15, label %9

9:                                                ; preds = %3
  %10 = load i32, ptr %5, align 4, !tbaa !9
  %11 = zext i32 %10 to i64
  %12 = getelementptr inbounds nuw [92 x ptr], ptr @errorMessages, i64 0, i64 %11
  %13 = load ptr, ptr %12, align 8, !tbaa !4
  %14 = load ptr, ptr %6, align 8, !tbaa !4
  call void @invalidQuESTInputError(ptr noundef %13, ptr noundef %14)
  br label %15

15:                                               ; preds = %9, %3
  ret void
}

; Function Attrs: nounwind uwtable
define void @validateDiagonalOpGPUAllocation(ptr noundef %0, ptr noundef byval(%struct.QuESTEnv) align 8 %1, ptr noundef %2) #0 {
  %4 = alloca ptr, align 8
  %5 = alloca ptr, align 8
  %6 = alloca i32, align 4
  store ptr %0, ptr %4, align 8, !tbaa !70
  store ptr %2, ptr %5, align 8, !tbaa !4
  call void @llvm.lifetime.start.p0(i64 4, ptr %6) #7
  %7 = load ptr, ptr %4, align 8, !tbaa !70
  %8 = getelementptr inbounds nuw %struct.DiagonalOp, ptr %7, i32 0, i32 6
  %9 = getelementptr inbounds nuw %struct.ComplexArray, ptr %8, i32 0, i32 0
  %10 = load ptr, ptr %9, align 8, !tbaa !72
  %11 = icmp ne ptr %10, null
  br i1 %11, label %12, label %18

12:                                               ; preds = %3
  %13 = load ptr, ptr %4, align 8, !tbaa !70
  %14 = getelementptr inbounds nuw %struct.DiagonalOp, ptr %13, i32 0, i32 6
  %15 = getelementptr inbounds nuw %struct.ComplexArray, ptr %14, i32 0, i32 1
  %16 = load ptr, ptr %15, align 8, !tbaa !73
  %17 = icmp ne ptr %16, null
  br label %18

18:                                               ; preds = %12, %3
  %19 = phi i1 [ false, %3 ], [ %17, %12 ]
  %20 = zext i1 %19 to i32
  store i32 %20, ptr %6, align 4, !tbaa !9
  %21 = load i32, ptr %6, align 4, !tbaa !9
  %22 = icmp ne i32 %21, 0
  br i1 %22, label %35, label %23

23:                                               ; preds = %18
  %24 = load ptr, ptr %4, align 8, !tbaa !70
  call void @destroyDiagonalOp(ptr noundef byval(%struct.DiagonalOp) align 8 %24, ptr noundef byval(%struct.QuESTEnv) align 8 %1)
  %25 = load ptr, ptr %4, align 8, !tbaa !70
  %26 = getelementptr inbounds nuw %struct.DiagonalOp, ptr %25, i32 0, i32 4
  store ptr null, ptr %26, align 8, !tbaa !55
  %27 = load ptr, ptr %4, align 8, !tbaa !70
  %28 = getelementptr inbounds nuw %struct.DiagonalOp, ptr %27, i32 0, i32 5
  store ptr null, ptr %28, align 8, !tbaa !56
  %29 = load ptr, ptr %4, align 8, !tbaa !70
  %30 = getelementptr inbounds nuw %struct.DiagonalOp, ptr %29, i32 0, i32 6
  %31 = getelementptr inbounds nuw %struct.ComplexArray, ptr %30, i32 0, i32 0
  store ptr null, ptr %31, align 8, !tbaa !72
  %32 = load ptr, ptr %4, align 8, !tbaa !70
  %33 = getelementptr inbounds nuw %struct.DiagonalOp, ptr %32, i32 0, i32 6
  %34 = getelementptr inbounds nuw %struct.ComplexArray, ptr %33, i32 0, i32 1
  store ptr null, ptr %34, align 8, !tbaa !73
  br label %35

35:                                               ; preds = %23, %18
  %36 = load i32, ptr %6, align 4, !tbaa !9
  %37 = load ptr, ptr %5, align 8, !tbaa !4
  call void @QuESTAssert(i32 noundef %36, i32 noundef 88, ptr noundef %37)
  call void @llvm.lifetime.end.p0(i64 4, ptr %6) #7
  ret void
}